target datalayout = "e-m:e-p270:32:32-p271:32:32-p272:64:64-i64:64-i128:128-f80:128-n8:16:32:64-S128"
target triple = "x86_64-pc-linux-gnu"

@.str.5 = private unnamed_addr constant [68 x i8] c"abcdefghijklmnopqrstuvwxyzABCDEFGHIJKLMNOPQRSTUVWXYZ0123456789-_./:\00", align 1
@.str.6 = private unnamed_addr constant [6 x i8] c"'\22'\22'\00", align 1

; Function Attrs: nounwind uwtable
define dso_local zeroext i1 @appendShellStringNoError(ptr noundef %0, ptr noundef %1) #0 {
  %3 = alloca i1, align 1
  %4 = alloca ptr, align 8
  %5 = alloca ptr, align 8
  %6 = alloca i8, align 1
  %7 = alloca ptr, align 8
  %8 = alloca i32, align 4
  store ptr %0, ptr %4, align 8
  store ptr %1, ptr %5, align 8
  call void @llvm.lifetime.start.p0(i64 1, ptr %6) #8
  store i8 1, ptr %6, align 1
  call void @llvm.lifetime.start.p0(i64 8, ptr %7) #8
  %9 = load ptr, ptr %5, align 8
  %10 = load i8, ptr %9, align 1
  %11 = sext i8 %10 to i32
  %12 = icmp ne i32 %11, 0
  br i1 %12, label %13, label %24

13:                                               ; preds = %2
  %14 = load ptr, ptr %5, align 8
  %15 = call i64 @strspn(ptr noundef %14, ptr noundef @.str.5) #9
  %16 = load ptr, ptr %5, align 8
  %17 = call i64 @strlen(ptr noundef %16) #9
  %18 = icmp eq i64 %15, %17
  br i1 %18, label %19, label %24

19:                                               ; preds = %13
  %20 = load ptr, ptr %4, align 8
  %21 = load ptr, ptr %5, align 8
  call void @appendPQExpBufferStr(ptr noundef %20, ptr noundef %21)
  %22 = load i8, ptr %6, align 1, !range !6, !noundef !7
  %23 = trunc i8 %22 to i1
  store i1 %23, ptr %3, align 1
  store i32 1, ptr %8, align 4
  br label %61

24:                                               ; preds = %13, %2
  %25 = load ptr, ptr %4, align 8
  call void @appendPQExpBufferChar(ptr noundef %25, i8 noundef signext 39)
  %26 = load ptr, ptr %5, align 8
  store ptr %26, ptr %7, align 8
  br label %27

27:                                               ; preds = %54, %24
  %28 = load ptr, ptr %7, align 8
  %29 = load i8, ptr %28, align 1
  %30 = icmp ne i8 %29, 0
  br i1 %30, label %31, label %57

31:                                               ; preds = %27
  %32 = load ptr, ptr %7, align 8
  %33 = load i8, ptr %32, align 1
  %34 = sext i8 %33 to i32
  %35 = icmp eq i32 %34, 10
  br i1 %35, label %41, label %36

36:                                               ; preds = %31
  %37 = load ptr, ptr %7, align 8
  %38 = load i8, ptr %37, align 1
  %39 = sext i8 %38 to i32
  %40 = icmp eq i32 %39, 13
  br i1 %40, label %41, label %42

41:                                               ; preds = %36, %31
  store i8 0, ptr %6, align 1
  br label %54

42:                                               ; preds = %36
  %43 = load ptr, ptr %7, align 8
  %44 = load i8, ptr %43, align 1
  %45 = sext i8 %44 to i32
  %46 = icmp eq i32 %45, 39
  br i1 %46, label %47, label %49

47:                                               ; preds = %42
  %48 = load ptr, ptr %4, align 8
  call void @appendPQExpBufferStr(ptr noundef %48, ptr noundef @.str.6)
  br label %53

49:                                               ; preds = %42
  %50 = load ptr, ptr %4, align 8
  %51 = load ptr, ptr %7, align 8
  %52 = load i8, ptr %51, align 1
  call void @appendPQExpBufferChar(ptr noundef %50, i8 noundef signext %52)
  br label %53

53:                                               ; preds = %49, %47
  br label %54

54:                                               ; preds = %53, %41
  %55 = load ptr, ptr %7, align 8
  %56 = getelementptr inbounds nuw i8, ptr %55, i32 1
  store ptr %56, ptr %7, align 8
  br label %27, !llvm.loop !14

57:                                               ; preds = %27
  %58 = load ptr, ptr %4, align 8
  call void @appendPQExpBufferChar(ptr noundef %58, i8 noundef signext 39)
  %59 = load i8, ptr %6, align 1, !range !6, !noundef !7
  %60 = trunc i8 %59 to i1
  store i1 %60, ptr %3, align 1
  store i32 1, ptr %8, align 4
  br label %61

61:                                               ; preds = %57, %19
  call void @llvm.lifetime.end.p0(i64 8, ptr %7) #8
  call void @llvm.lifetime.end.p0(i64 1, ptr %6) #8
  %62 = load i1, ptr %3, align 1
  ret i1 %62
}