; Function Attrs: nounwind uwtable
define dso_local zeroext i1 @appendShellStringNoError(ptr noundef %0, ptr noundef %1) local_unnamed_addr #0 {
  %3 = load i8, ptr %1, align 1
  %.not = icmp eq i8 %3, 0
  br i1 %.not, label %9, label %4

4:                                                ; preds = %2
  %5 = tail call i64 @strspn(ptr noundef nonnull %1, ptr noundef nonnull @.str.5) #12
  %6 = tail call i64 @strlen(ptr noundef nonnull dereferenceable(1) %1) #12
  %7 = icmp eq i64 %5, %6
  br i1 %7, label %8, label %9

8:                                                ; preds = %4
  tail call void @appendPQExpBufferStr(ptr noundef %0, ptr noundef nonnull %1) #11
  br label %17

9:                                                ; preds = %4, %2
  tail call void @appendPQExpBufferChar(ptr noundef %0, i8 noundef signext 39) #11
  br label %10

10:                                               ; preds = %14, %9
  %.018 = phi i1 [ true, %9 ], [ %.1, %14 ]
  %.0 = phi ptr [ %1, %9 ], [ %15, %14 ]
  %11 = load i8, ptr %.0, align 1
  switch i8 %11, label %13 [
    i8 0, label %16
    i8 10, label %14
    i8 13, label %14
    i8 39, label %12
  ]

12:                                               ; preds = %10
  tail call void @appendPQExpBufferStr(ptr noundef %0, ptr noundef nonnull @.str.6) #11
  br label %14

13:                                               ; preds = %10
  tail call void @appendPQExpBufferChar(ptr noundef %0, i8 noundef signext %11) #11
  br label %14

14:                                               ; preds = %10, %10, %12, %13
  %.1 = phi i1 [ %.018, %12 ], [ %.018, %13 ], [ false, %10 ], [ false, %10 ]
  %15 = getelementptr inbounds nuw i8, ptr %.0, i64 1
  br label %10, !llvm.loop !12

16:                                               ; preds = %10
  tail call void @appendPQExpBufferChar(ptr noundef %0, i8 noundef signext 39) #11
  br label %17

17:                                               ; preds = %16, %8
  %.019 = phi i1 [ true, %8 ], [ %.018, %16 ]
  ret i1 %.019
}